(dp0
I49650
I6
sI1025
I3
sI1026
I8
sI54513
I8
sI1029
I8
sI1030
I8
sI31489
I11
sI1033
I10
sI1034
I7
sI46253
I3
sI77573
I7
sI32430
I8
sI70746
I11
sI31493
I15
sI13345
I9
sI13346
I8
sI31494
I9
sI55473
I9
sI81453
I5
sI81454
I5
sI75170
I10
sI36114
I8
sI6197
I8
sI6198
I8
sI10214
I7
sI9277
I6
sI9278
I5
sI121921
I6
sI35909
I6
sI7265
I8
sI81481
I19
sI81482
I6
sI51490
I12
sI70754
I8
sI81289
I8
sI32018
I6
sI49649
I11
sI9145
I4
sI7257
I11
sI7258
I13
sI7261
I10
sI70750
I9
sI35941
I5
sI55429
I7
sI70753
I2
sI7266
I3
sI9721
I6
sI70757
I4
sI35942
I5
sI32017
I6
sI35945
I6
sI25706
I11
sI25709
I3
sI25710
I9
sI58813
I6
sI25713
I12
sI25714
I11
sI25717
I3
sI25718
I7
sI25705
I7
sI13302
I7
sI55474
I12
sI35946
I8
sI55430
I6
sI9722
I13
sI32022
I4
sI8837
I7
sI11398
I8
sI8841
I5
sI9354
I4
sI9357
I8
sI9358
I3
sI27281
I1
sI31890
I8
sI31893
I5
sI31894
I3
sI36121
I6
sI28954
I8
sI70758
I6
sI76625
I8
sI54954
I5
sI32425
I10
sI81066
I3
sI32429
I7
sI46254
I10
sI36125
I16
sI32433
I5
sI32434
I2
sI32030
I5
sI76985
I5
sI76986
I8
sI76989
I4
sI9349
I4
sI33990
I4
sI51489
I11
sI54985
I9
sI54986
I8
sI13517
I11
sI13518
I20
sI54305
I5
sI13521
I8
sI13526
I4
sI78041
I9
sI78042
I6
sI2781
I8
sI2782
I4
sI77349
I7
sI2785
I10
sI2786
I10
sI54953
I7
sI2789
I10
sI2790
I8
sI32489
I14
sI32490
I9
sI74034
I9
sI81297
I9
sI13306
I3
sI54514
I8
sI28957
I7
sI58613
I5
sI58614
I6
sI74025
I10
sI58617
I7
sI58618
I7
sI76626
I13
sI58621
I8
sI58622
I5
sI58810
I10
sI77569
I9
sI77570
I17
sI58629
I3
sI77574
I14
sI58633
I9
sI31498
I3
sI32026
I2
sI9150
I4
sI36109
I10
sI36110
I8
sI74029
I12
sI36113
I9
sI28958
I9
sI36117
I10
sI36118
I7
sI28953
I5
sI36122
I9
sI51485
I9
sI36126
I8
sI11397
I6
sI28961
I6
sI28962
I3
sI78117
I10
sI78118
I7
sI74033
I6
sI52521
I7
sI78122
I9
sI52525
I14
sI74030
I6
sI52529
I9
sI52530
I7
sI10222
I7
sI68917
I9
sI68918
I3
sI72329
I10
sI9353
I16
sI68921
I5
sI68922
I6
sI58685
I8
sI58686
I3
sI58677
I5
sI77122
I9
sI49657
I6
sI76621
I16
sI76622
I10
sI81293
I7
sI4433
I2
sI4434
I3
sI79354
I9
sI4437
I10
sI4438
I9
sI58681
I8
sI4441
I8
sI4442
I8
sI52522
I7
sI58682
I5
sI24037
I13
sI72333
I3
sI24050
I8
sI72330
I8
sI31889
I17
sI56682
I12
sI58609
I5
sI56685
I6
sI56686
I4
sI77118
I2
sI58814
I4
sI79358
I9
sI10218
I8
sI58610
I4
sI81290
I11
sI54669
I5
sI81294
I6
sI13293
I7
sI54673
I7
sI30101
I8
sI30102
I10
sI75169
I12
sI77218
I16
sI77221
I6
sI77222
I7
sI24049
I8
sI77225
I7
sI77226
I3
sI80882
I8
sI58805
I8
sI58806
I12
sI58809
I12
sI9146
I7
sI9149
I8
sI81342
I5
sI13301
I4
sI58817
I10
sI58818
I8
sI9157
I7
sI9158
I7
sI77217
I8
sI9673
I4
sI9674
I9
sI54009
I15
sI9677
I9
sI9678
I5
sI13305
I8
sI1018
I4
sI27277
I9
sI10209
I7
sI10210
I8
sI13297
I4
sI10213
I5
sI24038
I13
sI32426
I6
sI24041
I12
sI24042
I12
sI7262
I7
sI24045
I5
sI24046
I6
sI13309
I9
sI80881
I4
sI13298
I6
sI49653
I5
sI49654
I13
sI81065
I3
sI1017
I9
sI49658
I10
sI74026
I6
sI1021
I10
sI1022
I7
sI13349
I9
s.