(lp0
L1017L
aL1018L
aL1021L
aL1022L
aL1025L
aL1026L
aL1029L
aL1030L
aL1033L
aL1034L
aL2781L
aL2782L
aL2785L
aL2786L
aL2789L
aL2790L
aL4433L
aL4434L
aL4437L
aL4438L
aL4441L
aL4442L
aL6197L
aL6198L
aL7257L
aL7258L
aL7261L
aL7262L
aL7265L
aL7266L
aL8837L
aL8841L
aL9145L
aL9146L
aL9149L
aL9150L
aL9157L
aL9158L
aL9277L
aL9278L
aL9349L
aL9353L
aL9354L
aL9357L
aL9358L
aL9673L
aL9674L
aL9677L
aL9678L
aL9721L
aL9722L
aL10209L
aL10210L
aL10213L
aL10214L
aL10218L
aL10222L
aL11397L
aL11398L
aL13293L
aL13297L
aL13298L
aL13301L
aL13302L
aL13305L
aL13306L
aL13309L
aL13345L
aL13346L
aL13349L
aL13517L
aL13518L
aL13521L
aL13526L
aL24037L
aL24038L
aL24041L
aL24042L
aL24045L
aL24046L
aL24049L
aL24050L
aL25705L
aL25706L
aL25709L
aL25710L
aL25713L
aL25714L
aL25717L
aL25718L
aL27277L
aL27281L
aL28953L
aL28954L
aL28957L
aL28958L
aL28961L
aL28962L
aL30101L
aL30102L
aL31489L
aL31493L
aL31494L
aL31498L
aL31889L
aL31890L
aL31893L
aL31894L
aL32017L
aL32018L
aL32022L
aL32026L
aL32030L
aL32425L
aL32426L
aL32429L
aL32430L
aL32433L
aL32434L
aL32489L
aL32490L
aL33990L
aL35909L
aL35941L
aL35942L
aL35945L
aL35946L
aL36109L
aL36110L
aL36113L
aL36114L
aL36117L
aL36118L
aL36121L
aL36122L
aL36125L
aL36126L
aL46253L
aL46254L
aL49649L
aL49650L
aL49653L
aL49654L
aL49657L
aL49658L
aL51485L
aL51489L
aL51490L
aL52521L
aL52522L
aL52525L
aL52529L
aL52530L
aL54009L
aL54305L
aL54513L
aL54514L
aL54669L
aL54673L
aL54953L
aL54954L
aL54985L
aL54986L
aL55429L
aL55430L
aL55473L
aL55474L
aL56682L
aL56685L
aL56686L
aL58609L
aL58610L
aL58613L
aL58614L
aL58617L
aL58618L
aL58621L
aL58622L
aL58629L
aL58633L
aL58677L
aL58681L
aL58682L
aL58685L
aL58686L
aL58805L
aL58806L
aL58809L
aL58810L
aL58813L
aL58814L
aL58817L
aL58818L
aL68917L
aL68918L
aL68921L
aL68922L
aL70746L
aL70750L
aL70753L
aL70754L
aL70757L
aL70758L
aL72329L
aL72330L
aL72333L
aL74025L
aL74026L
aL74029L
aL74030L
aL74033L
aL74034L
aL75169L
aL75170L
aL76621L
aL76622L
aL76625L
aL76626L
aL76985L
aL76986L
aL76989L
aL77118L
aL77122L
aL77217L
aL77218L
aL77221L
aL77222L
aL77225L
aL77226L
aL77349L
aL77569L
aL77570L
aL77573L
aL77574L
aL78041L
aL78042L
aL78117L
aL78118L
aL78122L
aL79354L
aL79358L
aL80881L
aL80882L
aL81065L
aL81066L
aL81289L
aL81290L
aL81293L
aL81294L
aL81297L
aL81342L
aL81453L
aL81454L
aL81481L
aL81482L
aL121921L
a.