(dp0
I0
I0
sI1
I0
sI2
I1
sI3
I1
sI4
I2
sI5
I2
sI6
I3
sI7
I3
sI8
I4
sI9
I4
sI10
I5
sI11
I5
sI12
I6
sI13
I6
sI14
I7
sI15
I7
sI16
I8
sI17
I8
sI18
I9
sI19
I9
sI20
I10
sI21
I10
sI22
I11
sI23
I11
sI24
I12
sI25
I12
sI26
I13
sI27
I13
sI28
I14
sI29
I14
sI30
I15
sI31
I16
sI32
I17
sI33
I17
sI34
I18
sI35
I18
sI36
I19
sI37
I19
sI38
I20
sI39
I20
sI40
I21
sI41
I22
sI42
I22
sI43
I23
sI44
I23
sI45
I24
sI46
I24
sI47
I25
sI48
I25
sI49
I26
sI50
I26
sI51
I27
sI52
I27
sI53
I28
sI54
I28
sI55
I29
sI56
I30
sI57
I31
sI58
I31
sI59
I32
sI60
I33
sI61
I33
sI62
I34
sI63
I34
sI64
I35
sI65
I35
sI66
I36
sI67
I37
sI68
I37
sI69
I38
sI70
I39
sI71
I40
sI72
I41
sI73
I42
sI74
I43
sI75
I43
sI76
I44
sI77
I44
sI78
I45
sI79
I45
sI80
I46
sI81
I46
sI82
I47
sI83
I47
sI84
I48
sI85
I48
sI86
I49
sI87
I49
sI88
I50
sI89
I50
sI90
I51
sI91
I52
sI92
I53
sI93
I53
sI94
I54
sI95
I54
sI96
I55
sI97
I55
sI98
I56
sI99
I56
sI100
I57
sI101
I58
sI102
I58
sI103
I59
sI104
I60
sI105
I60
sI106
I61
sI107
I61
sI108
I62
sI109
I62
sI110
I63
sI111
I64
sI112
I65
sI113
I66
sI114
I66
sI115
I67
sI116
I67
sI117
I68
sI118
I68
sI119
I69
sI120
I69
sI121
I70
sI122
I71
sI123
I72
sI124
I72
sI125
I73
sI126
I73
sI127
I74
sI128
I74
sI129
I75
sI130
I75
sI131
I76
sI132
I76
sI133
I77
sI134
I77
sI135
I78
sI136
I78
sI137
I79
sI138
I79
sI139
I80
sI140
I80
sI141
I81
sI142
I81
sI143
I82
sI144
I82
sI145
I83
sI146
I84
sI147
I84
sI148
I85
sI149
I85
sI150
I86
sI151
I87
sI152
I87
sI153
I88
sI154
I89
sI155
I90
sI156
I90
sI157
I91
sI158
I92
sI159
I93
sI160
I93
sI161
I94
sI162
I94
sI163
I95
sI164
I95
sI165
I96
sI166
I97
sI167
I98
sI168
I99
sI169
I99
sI170
I100
sI171
I100
sI172
I101
sI173
I101
sI174
I102
sI175
I102
sI176
I103
sI177
I103
sI178
I104
sI179
I105
sI180
I106
sI181
I107
sI182
I107
sI183
I108
sI184
I108
sI185
I104
sI186
I104
sI187
I109
sI188
I110
sI189
I111
sI190
I111
sI191
I112
sI192
I112
sI193
I113
sI194
I113
sI195
I114
sI196
I114
sI197
I115
sI198
I116
sI199
I117
sI200
I117
sI201
I118
sI202
I118
sI203
I119
sI204
I119
sI205
I120
sI206
I121
sI207
I121
sI208
I122
sI209
I122
sI210
I123
sI211
I123
sI212
I124
sI213
I124
sI214
I125
sI215
I125
sI216
I126
sI217
I126
sI218
I127
sI219
I127
sI220
I128
sI221
I129
sI222
I130
sI223
I131
sI224
I131
sI225
I132
sI226
I132
sI227
I133
sI228
I133
sI229
I134
sI230
I135
sI231
I135
sI232
I136
sI233
I136
sI234
I137
sI235
I137
sI236
I138
sI237
I138
sI238
I139
sI239
I140
sI240
I141
sI241
I142
sI242
I142
sI243
I143
sI244
I143
sI245
I144
sI246
I144
sI247
I145
sI248
I145
sI249
I146
sI250
I147
sI251
I148
sI252
I148
sI253
I149
sI254
I149
sI255
I150
s.