(dp0
L49650L
(lp1
(F47.61327457266563
F-122.34217166966295
tp2
a(F47.613959174120545
F-122.34332952734536
tp3
asL1025L
(lp4
(F47.61412172503005
F-122.34796012163642
tp5
a(F47.614624911518256
F-122.34881098651763
tp6
asL1026L
(lp7
(F47.61423934964423
F-122.34780798165792
tp8
a(F47.614742537268484
F-122.34865884699131
tp9
asL1029L
(lp10
(F47.61632665810522
F-122.35169495876319
tp11
a(F47.61684262185784
F-122.35256937964816
tp12
asL1030L
(lp13
(F47.61645292411208
F-122.35152662468259
tp14
a(F47.61696888915642
F-122.35240104602018
tp15
asL77569L
(lp16
(F47.6151205508097
F-122.35329557066476
tp17
a(F47.615729388616295
F-122.35250807679178
tp18
asL1033L
(lp19
(F47.616901622908834
F-122.35265706437055
tp20
a(F47.61763410136969
F-122.35389889998396
tp21
asL1034L
(lp22
(F47.61702297712443
F-122.35251123920611
tp23
a(F47.617755457174226
F-122.35375307566295
tp24
asL77570L
(lp25
(F47.61501845432842
F-122.35312599384258
tp26
a(F47.61562729095967
F-122.35233849979005
tp27
asL46253L
(lp28
(F47.61104235553582
F-122.34275346207967
tp29
a(F47.61176278887372
F-122.34397090350599
tp30
asL77573L
(lp31
(F47.615784936286175
F-122.35243624918947
tp32
a(F47.61635497097651
F-122.35169918630528
tp33
asL46254L
(lp34
(F47.61115788701011
F-122.34260395023772
tp35
a(F47.6118783219456
F-122.343821392297
tp36
asL76626L
(lp37
(F47.61343000576047
F-122.35216184314437
tp38
a(F47.61444419905838
F-122.35387063388247
tp39
asL70746L
(lp40
(F47.61182971590355
F-122.34174048056701
tp41
a(F47.61251390400246
F-122.34289738206398
tp42
asL58629L
(lp43
(F47.61044120604334
F-122.3435363514031
tp44
a(F47.61077181310062
F-122.34311610201566
tp45
asL13345L
(lp46
(F47.6147851565513
F-122.34874375978163
tp47
a(F47.61536180086354
F-122.34799914023127
tp48
asL13346L
(lp49
(F47.6147145750459
F-122.34860884048072
tp50
a(F47.61529121847638
F-122.3478642204452
tp51
asL80881L
(lp52
(F47.61239426896853
F-122.3387426473717
tp53
a(F47.61294964498212
F-122.33802463848477
tp54
asL13349L
(lp55
(F47.616130199901015
F-122.34703928395558
tp56
a(F47.61669815128534
F-122.34630622549734
tp57
asL55473L
(lp58
(F47.61136821711217
F-122.34532971617335
tp59
a(F47.61164244869679
F-122.34651234493784
tp60
asL55474L
(lp61
(F47.61113324673947
F-122.34493973201602
tp62
a(F47.61121990854093
F-122.34522758488141
tp63
asL81454L
(lp64
(F47.61795200452583
F-122.35407173927562
tp65
a(F47.61858578696943
F-122.35406646474664
tp66
asL36114L
(lp67
(F47.61411461530602
F-122.34960542342048
tp68
a(F47.614605258744454
F-122.35043463198615
tp69
asL77574L
(lp70
(F47.61569188100666
F-122.3522819075088
tp71
a(F47.616261914698754
F-122.35154484425192
tp72
asL6197L
(lp73
(F47.617228115648885
F-122.34726414924693
tp74
a(F47.617695671051536
F-122.34805525257572
tp75
asL6198L
(lp76
(F47.6173381060289
F-122.3470682797039
tp77
a(F47.61780566279175
F-122.34785938294495
tp78
asL81342L
(lp79
(F47.617377704601836
F-122.34517038991005
tp80
a(F47.617934333112125
F-122.34445146275077
tp81
asL9277L
(lp82
(F47.61285223419027
F-122.34732367822427
tp83
a(F47.61341822070005
F-122.34659192582123
tp84
asL9278L
(lp85
(F47.61272034457206
F-122.34723570809908
tp86
a(F47.6133295509128
F-122.34644807687746
tp87
asL80882L
(lp88
(F47.61230867013092
F-122.33857329106375
tp89
a(F47.61287638653051
F-122.33783932565663
tp90
asL35909L
(lp91
(F47.611838185380925
F-122.34176748486735
tp92
a(F47.61244547867543
F-122.34098189098479
tp93
asL70753L
(lp94
(F47.614767987267584
F-122.3470815688408
tp95
a(F47.6152356209158
F-122.3478722048005
tp96
asL81481L
(lp97
(F47.61190929478869
F-122.34618400576349
tp98
a(F47.61262946598308
F-122.34740186550479
tp99
asL81482L
(lp100
(F47.612032173379006
F-122.3460653914353
tp101
a(F47.6127469445439
F-122.34727411813715
tp102
asL51490L
(lp103
(F47.614696890885654
F-122.34262484916677
tp104
a(F47.61538081905195
F-122.34378204688421
tp105
asL70754L
(lp106
(F47.614884070280816
F-122.34692066274417
tp107
a(F47.615351705048965
F-122.34771129876212
tp108
asL81289L
(lp109
(F47.61666919958209
F-122.3479815995843
tp110
a(F47.61722049947009
F-122.34726905232026
tp111
asL49649L
(lp112
(F47.61314068948963
F-122.34233942294938
tp113
a(F47.61383069373236
F-122.34350642076241
tp114
asL77218L
(lp115
(F47.61326497098809
F-122.3442322391357
tp116
a(F47.6138742755575
F-122.34344446882454
tp117
asL58809L
(lp118
(F47.611409306249925
F-122.34532589218065
tp119
a(F47.61188820725128
F-122.3461360281384
tp120
asL7257L
(lp121
(F47.613709666282666
F-122.33929813048744
tp122
a(F47.61440258082013
F-122.34047035759116
tp123
asL7258L
(lp124
(F47.61382292215655
F-122.33915708145545
tp125
a(F47.61451583796953
F-122.34032930922722
tp126
asL58617L
(lp127
(F47.615345895236786
F-122.34968603205108
tp128
a(F47.615955323301236
F-122.34889896906014
tp129
asL7261L
(lp130
(F47.61447330682701
F-122.34062078701686
tp131
a(F47.61515802605086
F-122.3417787795401
tp132
asL7262L
(lp133
(F47.61459352538155
F-122.34045455576441
tp134
a(F47.61528725558507
F-122.34162778583483
tp135
asL70757L
(lp136
(F47.61698737713154
F-122.35082230140581
tp137
a(F47.61746769603143
F-122.35163471885816
tp138
asL55429L
(lp139
(F47.61713666374432
F-122.354718723013
tp140
a(F47.61770097862389
F-122.35399019708596
tp141
asL7265L
(lp142
(F47.61791081696534
F-122.34636716553564
tp143
a(F47.61839043983224
F-122.34725523202134
tp144
asL7266L
(lp145
(F47.61815288055827
F-122.34646454322134
tp146
a(F47.618470573059184
F-122.34705278160317
tp147
asL35941L
(lp148
(F47.61345011603288
F-122.35047108608583
tp149
a(F47.61405884533337
F-122.3496834668816
tp150
asL35942L
(lp151
(F47.61337224290874
F-122.35034559115378
tp152
a(F47.613980971162945
F-122.3495579719145
tp153
asL36113L
(lp154
(F47.614016117795884
F-122.34972216510508
tp155
a(F47.61450136870129
F-122.35054226087321
tp156
asL25705L
(lp157
(F47.61093368200362
F-122.34060417373489
tp158
a(F47.611618183486776
F-122.34176147887992
tp159
asL25706L
(lp160
(F47.61106342161357
F-122.34044173631754
tp161
a(F47.61174792385238
F-122.34159904348294
tp162
asL25709L
(lp163
(F47.613218306988784
F-122.3444486803646
tp164
a(F47.613902302274354
F-122.34560564457439
tp165
asL25710L
(lp166
(F47.613356274125394
F-122.34431863665478
tp167
a(F47.614040273410374
F-122.34547559866715
tp168
asL58813L
(lp169
(F47.615675739042445
F-122.35252847668669
tp170
a(F47.61614805162651
F-122.35332943832344
tp171
asL25713L
(lp172
(F47.61399146915434
F-122.34574438967803
tp173
a(F47.61466986479604
F-122.34690977455489
tp174
asL25714L
(lp175
(F47.61411227935395
F-122.34560392542855
tp176
a(F47.61479067643557
F-122.34676931092038
tp177
asL25717L
(lp178
(F47.61587999647018
F-122.3489316049995
tp179
a(F47.6163874946998
F-122.34978931239476
tp180
asL25718L
(lp181
(F47.61599166668974
F-122.34878171035143
tp182
a(F47.61649916604419
F-122.34963941838491
tp183
asL35945L
(lp184
(F47.616787189864674
F-122.3461589818342
tp185
a(F47.61734113779828
F-122.34544368578206
tp186
asL81293L
(lp187
(F47.617356074680536
F-122.34712077813451
tp188
a(F47.617912039068045
F-122.34640250055564
tp189
asL78122L
(lp190
(F47.61454798804109
F-122.35229745495404
tp191
a(F47.615015689367816
F-122.35308717357103
tp192
asL35946L
(lp193
(F47.61671043267997
F-122.34603203201725
tp194
a(F47.617266439062895
F-122.34531407652986
tp195
asL81453L
(lp196
(F47.6180263806088
F-122.35423330823345
tp197
a(F47.61859459952597
F-122.35422858163307
tp198
asL11397L
(lp199
(F47.61192868628092
F-122.34390701687462
tp200
a(F47.61249041906331
F-122.34318055912009
tp201
asL11398L
(lp202
(F47.61185288895721
F-122.34377883957349
tp203
a(F47.61240844817422
F-122.3430603645435
tp204
asL8841L
(lp205
(F47.61436922841761
F-122.3541069332568
tp206
a(F47.61483098965193
F-122.354894199886
tp207
asL9354L
(lp208
(F47.61261794893102
F-122.3450852940179
tp209
a(F47.613227146818815
F-122.34429730042017
tp210
asL9357L
(lp211
(F47.61402724157947
F-122.34349435774415
tp212
a(F47.61463600445397
F-122.3427065355963
tp213
asL9358L
(lp214
(F47.61395808886301
F-122.34334680165804
tp215
a(F47.61455862421163
F-122.34256962516871
tp216
asL27281L
(lp217
(F47.6165650220229
F-122.34809438757192
tp218
a(F47.617036328365565
F-122.34889168140357
tp219
asL31890L
(lp220
(F47.6141545483245
F-122.34766503663357
tp221
a(F47.61472873569089
F-122.34692251697896
tp222
asL31893L
(lp223
(F47.61557202493798
F-122.34610084368883
tp224
a(F47.616180742716345
F-122.34531385629775
tp225
asL31894L
(lp226
(F47.61548180890672
F-122.34594821704215
tp227
a(F47.61609052563097
F-122.34516122923013
tp228
asL36121L
(lp229
(F47.61511686426337
F-122.35158282603793
tp230
a(F47.61560572021669
F-122.3524098809489
tp231
asL32026L
(lp232
(F47.61471500418997
F-122.34464540296088
tp233
a(F47.615315575213465
F-122.34386874818406
tp234
asL79354L
(lp235
(F47.612499255573866
F-122.34293754343263
tp236
a(F47.613073606577984
F-122.34219478209687
tp237
asL54954L
(lp238
(F47.61644745155278
F-122.34961996919293
tp239
a(F47.61702349351775
F-122.34887553223496
tp240
asL32425L
(lp241
(F47.61523317770424
F-122.35150270044997
tp242
a(F47.61584188838574
F-122.35071471935184
tp243
asL32426L
(lp244
(F47.615132062295736
F-122.35133185443712
tp245
a(F47.61570169928633
F-122.3505944534113
tp246
asL32429L
(lp247
(F47.61722787578623
F-122.3489021232543
tp248
a(F47.61778108208497
F-122.34818681475566
tp249
asL32430L
(lp250
(F47.61713043733289
F-122.348737287835
tp251
a(F47.6176815860943
F-122.34802463805819
tp252
asL36125L
(lp253
(F47.616972204262865
F-122.35476953061702
tp254
a(F47.61769727931539
F-122.35599879061846
tp255
asL32433L
(lp256
(F47.617891978319285
F-122.34804873756703
tp257
a(F47.61814173818739
F-122.34772546237203
tp258
asL32434L
(lp259
(F47.61779990008103
F-122.34789312628838
tp260
a(F47.61808891816617
F-122.34751903613143
tp261
asL32030L
(lp262
(F47.61537620366629
F-122.3437902854795
tp263
a(F47.61598471923927
F-122.34300266830711
tp264
asL70758L
(lp265
(F47.61711517176143
F-122.35068119514717
tp266
a(F47.617595491842486
F-122.35149361329749
tp267
asL76985L
(lp268
(F47.61490002839004
F-122.3469971992933
tp269
a(F47.615469989617246
F-122.3462597456637
tp270
asL76986L
(lp271
(F47.61479377828653
F-122.3468114499752
tp272
a(F47.615363738311586
F-122.34607399581677
tp273
asL76989L
(lp274
(F47.616917649752956
F-122.34439845327785
tp275
a(F47.61746769303023
F-122.34368740867056
tp276
asL49654L
(lp277
(F47.614033751736834
F-122.34348029810262
tp278
a(F47.61472664340852
F-122.34465220233953
tp279
asL9349L
(lp280
(F47.61168139335297
F-122.34654566011554
tp281
a(F47.61177448948088
F-122.3464022910097
tp282
asL33990L
(lp283
(F47.61384907265008
F-122.34119150622314
tp284
a(F47.61440032964572
F-122.3404783873652
tp285
asL51489L
(lp286
(F47.61455208114627
F-122.34275563724067
tp287
a(F47.61523600798507
F-122.34391283345668
tp288
asL54985L
(lp289
(F47.617784702244705
F-122.34983494095259
tp290
a(F47.618335840292744
F-122.34912230916193
tp291
asL54986L
(lp292
(F47.617694229827045
F-122.3496880245094
tp293
a(F47.61830089186675
F-122.34890359666817
tp294
asL13517L
(lp295
(F47.60929624901035
F-122.34216045537401
tp296
a(F47.61016676554863
F-122.34363163327129
tp297
asL13518L
(lp298
(F47.60937881215314
F-122.34201060355784
tp299
a(F47.610247917225294
F-122.34347942855668
tp300
asL54305L
(lp301
(F47.61357334774886
F-122.34870281146965
tp302
a(F47.61418230847244
F-122.34791459650157
tp303
asL13521L
(lp304
(F47.61268226054431
F-122.34748418921035
tp305
a(F47.61338808188088
F-122.34867358301797
tp306
asL13526L
(lp307
(F47.61789593141851
F-122.35598405438323
tp308
a(F47.61830884383619
F-122.35668456411723
tp309
asL78041L
(lp310
(F47.617799813214106
F-122.35384102749519
tp311
a(F47.618361545703806
F-122.35311516728758
tp312
asL78042L
(lp313
(F47.617701903048484
F-122.35368756657682
tp314
a(F47.6182615774027
F-122.35296436606991
tp315
asL2781L
(lp316
(F47.61532475824533
F-122.34799830840606
tp317
a(F47.615845532595266
F-122.34887949403029
tp318
asL2782L
(lp319
(F47.615435954209424
F-122.3478599309894
tp320
a(F47.615956729804815
F-122.34874111711686
tp321
asL77349L
(lp322
(F47.617024231997924
F-122.35252576926698
tp323
a(F47.61759679058009
F-122.35178506232668
tp324
asL2785L
(lp325
(F47.61644424871726
F-122.34990374619285
tp326
a(F47.61691183691872
F-122.3506945402016
tp327
asL2786L
(lp328
(F47.616560345686295
F-122.34974285681228
tp329
a(F47.61702793500432
F-122.35053365113966
tp330
asL2789L
(lp331
(F47.61755819700364
F-122.35181858220484
tp332
a(F47.61815639010618
F-122.35283023801566
tp333
asL2790L
(lp334
(F47.61768820698446
F-122.35165042273643
tp335
a(F47.6182864015798
F-122.35266207914168
tp336
asL72329L
(lp337
(F47.61711725580771
F-122.3490285872511
tp338
a(F47.61759368457
F-122.34983459409723
tp339
asL32489L
(lp340
(F47.617128364873025
F-122.35071030933314
tp341
a(F47.617679574652
F-122.34999778182753
tp342
asL32490L
(lp343
(F47.617024230213396
F-122.35052182005447
tp344
a(F47.617579552421695
F-122.34980397439448
tp345
asL74034L
(lp346
(F47.616246833784544
F-122.34522241923281
tp347
a(F47.616715401855274
F-122.34601536911588
tp348
asL81065L
(lp349
(F47.61812122009498
F-122.34643524935494
tp350
a(F47.61851134437738
F-122.34647714441846
tp351
asL81297L
(lp352
(F47.61250205627029
F-122.3409087135821
tp353
a(F47.61311107375063
F-122.3401210073963
tp354
asL54513L
(lp355
(F47.612028889876214
F-122.34607264604286
tp356
a(F47.612638164059476
F-122.3452853629319
tp357
asL54514L
(lp358
(F47.61195107016292
F-122.3459470818446
tp359
a(F47.61256034347861
F-122.34515979844089
tp360
asL58613L
(lp361
(F47.61468159149155
F-122.35056714592389
tp362
a(F47.615290382216166
F-122.34977928102751
tp363
asL58614L
(lp364
(F47.614579463076836
F-122.35039761270497
tp365
a(F47.61518825263276
F-122.34960974711204
tp366
asL74025L
(lp367
(F47.613048003436646
F-122.34018069247618
tp368
a(F47.613733795262625
F-122.34134086651326
tp369
asL54009L
(lp370
(F47.61146148371652
F-122.34898431697759
tp371
a(F47.61239458519685
F-122.35055388884786
tp372
asL58618L
(lp373
(F47.615259340360126
F-122.34953944351064
tp374
a(F47.615868767412074
F-122.34875238011216
tp375
asL72330L
(lp376
(F47.61723050777966
F-122.34888752244557
tp377
a(F47.61771772476119
F-122.34971177908753
tp378
asL58621L
(lp379
(F47.615990585145965
F-122.34884800766106
tp380
a(F47.61659975836284
F-122.34806058408363
tp381
asL58622L
(lp382
(F47.61590243752216
F-122.34869270612369
tp383
a(F47.616511609665885
F-122.347905282062
tp384
asL58810L
(lp385
(F47.61125720536297
F-122.34477297641075
tp386
a(F47.61197737778533
F-122.34599119880113
tp387
asL31489L
(lp388
(F47.60850676257759
F-122.34397696627074
tp389
a(F47.6091628380535
F-122.34507556761778
tp390
asL36118L
(lp391
(F47.61465202349133
F-122.35051367746233
tp392
a(F47.61514703553941
F-122.35135053860445
tp393
asL31493L
(lp394
(F47.609927756747915
F-122.34638564895513
tp395
a(F47.61061186509365
F-122.34755025137434
tp396
asL31494L
(lp397
(F47.61005814503041
F-122.34621815642065
tp398
a(F47.610742255088304
F-122.34738275955603
tp399
asL58633L
(lp400
(F47.610774644970235
F-122.34311258372067
tp401
a(F47.611057626981015
F-122.34274037563775
tp402
asL31498L
(lp403
(F47.61083285498824
F-122.34751845077322
tp404
a(F47.611509292053746
F-122.34867004909019
tp405
asL36109L
(lp406
(F47.61345415159476
F-122.34880273196559
tp407
a(F47.61393211064433
F-122.34961093521096
tp408
asL36110L
(lp409
(F47.61356209033547
F-122.34867116662318
tp410
a(F47.61404364409905
F-122.34948544732275
tp411
asL74029L
(lp412
(F47.61380916896398
F-122.34147452126513
tp413
a(F47.614493712676726
F-122.34263226793306
tp414
asL32017L
(lp415
(F47.61213874503916
F-122.34822996763889
tp416
a(F47.61274803049978
F-122.34744224347459
tp417
asL32018L
(lp418
(F47.61204595914085
F-122.34809144320732
tp419
a(F47.61265524364047
F-122.3473037190851
tp420
asL36117L
(lp421
(F47.614542707293765
F-122.35061212857839
tp422
a(F47.61506651899167
F-122.35149767943189
tp423
asL32022L
(lp424
(F47.61337969328969
F-122.34636707990393
tp425
a(F47.613988788356835
F-122.34557942547427
tp426
asL28953L
(lp427
(F47.61534476759348
F-122.34407841838305
tp428
a(F47.61602861455397
F-122.3452361444388
tp429
asL28954L
(lp430
(F47.61547690332948
F-122.34390770252865
tp431
a(F47.616160752024356
F-122.34506542928074
tp432
asL28957L
(lp433
(F47.61666473695024
F-122.34631158141599
tp434
a(F47.6171327757178
F-122.34710289691213
tp435
asL28958L
(lp436
(F47.61678441489523
F-122.34615674772768
tp437
a(F47.617252454737915
F-122.34694806365113
tp438
asL8837L
(lp439
(F47.61274674859789
F-122.35126331627397
tp440
a(F47.613188474358346
F-122.35210056741215
tp441
asL28961L
(lp442
(F47.617775310747874
F-122.34817770636319
tp443
a(F47.61824274782231
F-122.34896851072071
tp444
asL28962L
(lp445
(F47.61788882892209
F-122.34803092969129
tp446
a(F47.61840301052185
F-122.34890081571346
tp447
asL55430L
(lp448
(F47.61702849493502
F-122.35453544816255
tp449
a(F47.61759280864293
F-122.35380692176228
tp450
asL78118L
(lp451
(F47.613467507499315
F-122.35045083323324
tp452
a(F47.613936372734244
F-122.35124401479762
tp453
asL74033L
(lp454
(F47.61609730633881
F-122.34535138385087
tp455
a(F47.61656587368812
F-122.3461443326217
tp456
asL52521L
(lp457
(F47.61294268668642
F-122.33800109377222
tp458
a(F47.61363586804576
F-122.33917330949373
tp459
asL52522L
(lp460
(F47.61306688028957
F-122.33785390728549
tp461
a(F47.61376006316295
F-122.33902612384402
tp462
asL52525L
(lp463
(F47.61599761376191
F-122.34316332404899
tp464
a(F47.616707013679594
F-122.34436930839308
tp465
asL74030L
(lp466
(F47.61393776011667
F-122.34131629295952
tp467
a(F47.61462230543693
F-122.34247404040694
tp468
asL52529L
(lp469
(F47.61734406902436
F-122.34543970806607
tp470
a(F47.61782285968794
F-122.3462489573555
tp471
asL52530L
(lp472
(F47.61745187815541
F-122.34528944021028
tp473
a(F47.61793246943944
F-122.34610173288426
tp474
asL58677L
(lp475
(F47.612895405965006
F-122.35119187430722
tp476
a(F47.61336490224777
F-122.35058130477196
tp477
asL68918L
(lp478
(F47.615341057492856
F-122.34966493570302
tp479
a(F47.61584498993388
F-122.35051689780074
tp480
asL9353L
(lp481
(F47.61269581176895
F-122.34521080136966
tp482
a(F47.613305010524684
F-122.34442280806225
tp483
asL58681L
(lp484
(F47.61411233795366
F-122.34961424954217
tp485
a(F47.61468022005767
F-122.34887940866905
tp486
asL58682L
(lp487
(F47.614038574879025
F-122.34948343463667
tp488
a(F47.614606456135924
F-122.34874859363707
tp489
asL58685L
(lp490
(F47.61544159052509
F-122.3479068757477
tp491
a(F47.616009795402455
F-122.34717319534715
tp492
asL58686L
(lp493
(F47.615358651237564
F-122.34776638267003
tp494
a(F47.61592891396355
F-122.34703004340572
tp495
asL68917L
(lp496
(F47.61522524377204
F-122.34982013997237
tp497
a(F47.61572917505611
F-122.35067210141752
tp498
asL77122L
(lp499
(F47.61605168273173
F-122.3429375947738
tp500
a(F47.61665725177912
F-122.3421542814657
tp501
asL49657L
(lp502
(F47.61545784051447
F-122.34622126641825
tp503
a(F47.61594017072826
F-122.34703736518406
tp504
asL76621L
(lp505
(F47.60916400059065
F-122.34507750199685
tp506
a(F47.60992579384478
F-122.34638228782815
tp507
asL76622L
(lp508
(F47.609292655747325
F-122.344913245234
tp509
a(F47.60997219210116
F-122.34607713757995
tp510
asL27277L
(lp511
(F47.614664241598675
F-122.34491009571441
tp512
a(F47.61535522092887
F-122.34607989784622
tp513
asL4433L
(lp514
(F47.61238420692682
F-122.3410231711819
tp515
a(F47.613072026714065
F-122.34218634668416
tp516
asL4434L
(lp517
(F47.612496546490114
F-122.34088057535146
tp518
a(F47.61318976943575
F-122.34205288632535
tp519
asL1017L
(lp520
(F47.61028142523736
F-122.34147349538826
tp521
a(F47.61032200006194
F-122.34151059421472
tp522
asL4437L
(lp523
(F47.61601219018671
F-122.34715920741434
tp524
a(F47.61648942669467
F-122.34796650760622
tp525
asL4438L
(lp526
(F47.61612724297104
F-122.34702119114588
tp527
a(F47.61659907785605
F-122.34781935265848
tp528
asL68921L
(lp529
(F47.61577954084482
F-122.35075726939297
tp530
a(F47.61628319629538
F-122.3516090093758
tp531
asL4441L
(lp532
(F47.61766894638233
F-122.34996808277981
tp533
a(F47.618145600250486
F-122.35077447949773
tp534
asL4442L
(lp535
(F47.61778040076866
F-122.3498239750739
tp536
a(F47.618257055656535
F-122.35063037219895
tp537
asL68922L
(lp538
(F47.61589923239592
F-122.35060246098227
tp539
a(F47.61640288900359
F-122.35145420142597
tp540
asL10213L
(lp541
(F47.61276525566805
F-122.34959658437323
tp542
a(F47.613232915126574
F-122.35038678451303
tp543
asL72333L
(lp544
(F47.61823248476664
F-122.35094611492308
tp545
a(F47.61852268878993
F-122.35143709806295
tp546
asL49658L
(lp547
(F47.61557110238729
F-122.34608022348897
tp548
a(F47.61606423203642
F-122.34691459353029
tp549
asL24038L
(lp550
(F47.6127043682293
F-122.3451940695148
tp551
a(F47.61342447265349
F-122.3464115748077
tp552
asL31889L
(lp553
(F47.614250445000536
F-122.34782108513292
tp554
a(F47.6148225752897
F-122.34708122740615
tp555
asL56682L
(lp556
(F47.61118037367025
F-122.34464363353919
tp557
a(F47.611744082070324
F-122.3439142075324
tp558
asL58609L
(lp559
(F47.61343684717043
F-122.35219094308329
tp560
a(F47.613967231149054
F-122.35149161926212
tp561
asL56685L
(lp562
(F47.61458696608089
F-122.34046860489875
tp563
a(F47.6151425000008
F-122.33975028036897
tp564
asL56686L
(lp565
(F47.61451323566552
F-122.34033774877385
tp566
a(F47.61506053873269
F-122.33963006598863
tp567
asL1018L
(lp568
(F47.61037733033313
F-122.34131333168921
tp569
a(F47.61041520573358
F-122.3413479621409
tp570
asL77118L
(lp571
(F47.614036132001054
F-122.34553973016438
tp572
a(F47.614604165225686
F-122.3448049245043
tp573
asL58814L
(lp574
(F47.615770781159085
F-122.3524058918047
tp575
a(F47.61624309460482
F-122.35320685379166
tp576
asL79358L
(lp577
(F47.6131885735139
F-122.34205145411373
tp578
a(F47.61373157481506
F-122.34134890352686
tp579
asL36122L
(lp580
(F47.615208215109085
F-122.35145399690224
tp581
a(F47.6156988691398
F-122.35228409256759
tp582
asL10218L
(lp583
(F47.614009645639065
F-122.35139879525276
tp584
a(F47.61447735660565
F-122.35219032040528
tp585
asL30101L
(lp586
(F47.616790431454646
F-122.34450323539
tp587
a(F47.61726848982514
F-122.34531196348443
tp588
asL81066L
(lp589
(F47.618093400971304
F-122.34616394998778
tp590
a(F47.618568097650254
F-122.3462149247314
tp591
asL121921L
(lp592
(F47.61180584784969
F-122.34709423002728
tp593
a(F47.61202982465819
F-122.34806378456607
tp594
asL58610L
(lp595
(F47.613335707499104
F-122.35202014267598
tp596
a(F47.613866091798165
F-122.35132082110833
tp597
asL81290L
(lp598
(F47.61658026470131
F-122.34780039034266
tp599
a(F47.61713773463862
F-122.34707986603368
tp600
asL54669L
(lp601
(F47.616357081802455
F-122.353403497922
tp602
a(F47.61692557364535
F-122.3526694388058
tp603
asL81294L
(lp604
(F47.61725790817694
F-122.34695149905177
tp605
a(F47.61781181239149
F-122.34623588119271
tp606
asL13293L
(lp607
(F47.61401401384756
F-122.35143108240453
tp608
a(F47.614622971926124
F-122.35064300729368
tp609
asL54673L
(lp610
(F47.61768807002124
F-122.35165087606043
tp611
a(F47.618239212745635
F-122.35093841153763
tp612
asL10222L
(lp613
(F47.615107273229306
F-122.35326672100109
tp614
a(F47.61558615374498
F-122.35407930372797
tp615
asL30102L
(lp616
(F47.61690188372885
F-122.34435912659738
tp617
a(F47.61738353939615
F-122.34517393354204
tp618
asL75169L
(lp619
(F47.615240816122295
F-122.34191885753077
tp620
a(F47.61592963720963
F-122.34308495013657
tp621
asL75170L
(lp622
(F47.61536469097867
F-122.34175880769405
tp623
a(F47.61605711065148
F-122.34293099026537
tp624
asL77221L
(lp625
(F47.61469976283315
F-122.34262410301571
tp626
a(F47.61530262247263
F-122.34184471176457
tp627
asL77222L
(lp628
(F47.61461420074297
F-122.34249777272352
tp629
a(F47.61522323212403
F-122.34171040128233
tp630
asL13297L
(lp631
(F47.6180909003688
F-122.34616458791774
tp632
a(F47.61849261464527
F-122.34562410486443
tp633
asL77225L
(lp634
(F47.6153592264192
F-122.34177149128311
tp635
a(F47.61596629267603
F-122.34098618367368
tp636
asL77226L
(lp637
(F47.61526769869705
F-122.34162594847352
tp638
a(F47.61587476395094
F-122.34084064054744
tp639
asL70750L
(lp640
(F47.61257743742776
F-122.3430140486156
tp641
a(F47.61326208017496
F-122.3441716629969
tp642
asL13298L
(lp643
(F47.6179169386498
F-122.34609168583064
tp644
a(F47.61846601430905
F-122.34535293472696
tp645
asL51485L
(lp646
(F47.61227156067204
F-122.33887947912078
tp647
a(F47.612955667622195
F-122.34003680483438
tp648
asL58805L
(lp649
(F47.61028680019893
F-122.34372937024212
tp650
a(F47.610619399241585
F-122.34399370106621
tp651
asL58806L
(lp652
(F47.61037445947681
F-122.34357351735378
tp653
a(F47.61070456360403
F-122.34383586440941
tp654
asL9145L
(lp655
(F47.61290308981279
F-122.34955296125796
tp656
a(F47.613512339422975
F-122.34876558902455
tp657
asL9146L
(lp658
(F47.61281314513879
F-122.34939460748993
tp659
a(F47.613422393654666
F-122.34860723476352
tp660
asL9149L
(lp661
(F47.61624532578503
F-122.34525725277724
tp662
a(F47.61679876963933
F-122.3445414018077
tp663
asL9150L
(lp664
(F47.61613909658288
F-122.34507147227387
tp665
a(F47.616692539273515
F-122.34435562053028
tp666
asL49653L
(lp667
(F47.61392590682024
F-122.34363050007497
tp668
a(F47.61461519762626
F-122.34479631583974
tp669
asL58817L
(lp670
(F47.616245067526904
F-122.35353709239546
tp671
a(F47.616945212261264
F-122.3547237803801
tp672
asL58818L
(lp673
(F47.61634607852615
F-122.35336912142208
tp674
a(F47.617046225006696
F-122.3545558097097
tp675
asL9157L
(lp676
(F47.61790387043026
F-122.35602257343125
tp677
a(F47.6184681161308
F-122.35529445379414
tp678
asL9158L
(lp679
(F47.61778182817763
F-122.35584643682606
tp680
a(F47.61834607275652
F-122.35511831672727
tp681
asL77217L
(lp682
(F47.61335750329758
F-122.34437647961698
tp683
a(F47.61396680886068
F-122.34358870985335
tp684
asL9673L
(lp685
(F47.61456679815118
F-122.35235424266486
tp686
a(F47.61517608108434
F-122.35156583124349
tp687
asL9674L
(lp688
(F47.614470867305336
F-122.35219823922364
tp689
a(F47.615080149162615
F-122.3514098271697
tp690
asL9677L
(lp691
(F47.61590719305774
F-122.35064108316263
tp692
a(F47.61651658838553
F-122.34985368224157
tp693
asL9678L
(lp694
(F47.61579897018035
F-122.35045788254212
tp695
a(F47.61637336538819
F-122.34971570408591
tp696
asL9721L
(lp697
(F47.61646147512863
F-122.35157227380147
tp698
a(F47.61702136888858
F-122.35084861051106
tp699
asL13306L
(lp700
(F47.613080242267635
F-122.33989697550794
tp701
a(F47.61368711456813
F-122.339112140773
tp702
asL36126L
(lp703
(F47.617117678906666
F-122.35468926763701
tp704
a(F47.61780677118939
F-122.35585752348612
tp705
asL10209L
(lp706
(F47.611996007128546
F-122.3482960711934
tp707
a(F47.61268057365746
F-122.34945341551567
tp708
asL10210L
(lp709
(F47.61211667066614
F-122.34820449421531
tp710
a(F47.61280123812444
F-122.34936184001643
tp711
asL24037L
(lp712
(F47.61257695802915
F-122.3453481344509
tp713
a(F47.61329706063182
F-122.34656563888974
tp714
asL10214L
(lp715
(F47.61289432644847
F-122.34953150263841
tp716
a(F47.61336198635751
F-122.35032170415325
tp717
asL76625L
(lp718
(F47.61325818467145
F-122.35227183662064
tp719
a(F47.61427237632192
F-122.35398062386021
tp720
asL24041L
(lp721
(F47.61334949016936
F-122.34664824621014
tp722
a(F47.61406962670849
F-122.34786648935331
tp723
asL24042L
(lp724
(F47.61346893412243
F-122.34649919077762
tp725
a(F47.61418910028999
F-122.34771739835767
tp726
asL24045L
(lp727
(F47.614676011181935
F-122.34887892973418
tp728
a(F47.61518079014211
F-122.34973266188399
tp729
asL24046L
(lp730
(F47.61479131447433
F-122.34873518071251
tp731
a(F47.61529609450801
F-122.34958891361906
tp732
asL1021L
(lp733
(F47.61181526055082
F-122.34405348748164
tp734
a(F47.612535792735954
F-122.3452723704535
tp735
asL24049L
(lp736
(F47.61782749881545
F-122.3542333068446
tp737
a(F47.61835712913823
F-122.35513145282584
tp738
asL24050L
(lp739
(F47.61805478299573
F-122.35426711340016
tp740
a(F47.618521575950304
F-122.3550587024584
tp741
asL13301L
(lp742
(F47.61117202413172
F-122.34263444128527
tp743
a(F47.611781314443014
F-122.3418464375748
tp744
asL13302L
(lp745
(F47.61108203932181
F-122.34247614226638
tp746
a(F47.611691328717036
F-122.34168813781076
tp747
asL54953L
(lp748
(F47.616574200056
F-122.34977923064818
tp749
a(F47.617129670117656
F-122.34906138096724
tp750
asL13305L
(lp751
(F47.61316686634068
F-122.34004346877174
tp752
a(F47.613773739650206
F-122.33925863443874
tp753
asL9722L
(lp754
(F47.616353234102185
F-122.35138909519252
tp755
a(F47.61691312669889
F-122.35066543143647
tp756
asL74026L
(lp757
(F47.61316358799594
F-122.34003126474262
tp758
a(F47.613849381343435
F-122.34119143938732
tp759
asL13309L
(lp760
(F47.6138344166553
F-122.33918015850637
tp761
a(F47.61438768635712
F-122.33846457786392
tp762
asL1022L
(lp763
(F47.61193470905844
F-122.34390443980192
tp764
a(F47.61265524302031
F-122.34512332299407
tp765
asL78117L
(lp766
(F47.6133418709333
F-122.35060789729046
tp767
a(F47.613810735250354
F-122.35140107836017
tp768
as.