(dp0
I0
c__builtin__
set
p1
((lp2
I0
aI1
atp3
Rp4
sI1
g1
((lp5
I2
aI3
atp6
Rp7
sI2
g1
((lp8
I4
aI5
atp9
Rp10
sI3
g1
((lp11
I6
aI7
atp12
Rp13
sI4
g1
((lp14
I8
aI9
atp15
Rp16
sI5
g1
((lp17
I10
aI11
atp18
Rp19
sI6
g1
((lp20
I12
aI13
atp21
Rp22
sI7
g1
((lp23
I14
aI15
atp24
Rp25
sI8
g1
((lp26
I16
aI17
atp27
Rp28
sI9
g1
((lp29
I18
aI19
atp30
Rp31
sI10
g1
((lp32
I20
aI21
atp33
Rp34
sI11
g1
((lp35
I22
aI23
atp36
Rp37
sI12
g1
((lp38
I24
aI25
atp39
Rp40
sI13
g1
((lp41
I26
aI27
atp42
Rp43
sI14
g1
((lp44
I28
aI29
atp45
Rp46
sI15
g1
((lp47
I30
atp48
Rp49
sI16
g1
((lp50
I31
atp51
Rp52
sI17
g1
((lp53
I32
aI33
atp54
Rp55
sI18
g1
((lp56
I34
aI35
atp57
Rp58
sI19
g1
((lp59
I36
aI37
atp60
Rp61
sI20
g1
((lp62
I38
aI39
atp63
Rp64
sI21
g1
((lp65
I40
atp66
Rp67
sI22
g1
((lp68
I41
aI42
atp69
Rp70
sI23
g1
((lp71
I43
aI44
atp72
Rp73
sI24
g1
((lp74
I45
aI46
atp75
Rp76
sI25
g1
((lp77
I48
aI47
atp78
Rp79
sI26
g1
((lp80
I49
aI50
atp81
Rp82
sI27
g1
((lp83
I51
aI52
atp84
Rp85
sI28
g1
((lp86
I53
aI54
atp87
Rp88
sI29
g1
((lp89
I55
atp90
Rp91
sI30
g1
((lp92
I56
atp93
Rp94
sI31
g1
((lp95
I57
aI58
atp96
Rp97
sI32
g1
((lp98
I59
atp99
Rp100
sI33
g1
((lp101
I60
aI61
atp102
Rp103
sI34
g1
((lp104
I62
aI63
atp105
Rp106
sI35
g1
((lp107
I64
aI65
atp108
Rp109
sI36
g1
((lp110
I66
atp111
Rp112
sI37
g1
((lp113
I67
aI68
atp114
Rp115
sI38
g1
((lp116
I69
atp117
Rp118
sI39
g1
((lp119
I70
atp120
Rp121
sI40
g1
((lp122
I71
atp123
Rp124
sI41
g1
((lp125
I72
atp126
Rp127
sI42
g1
((lp128
I73
atp129
Rp130
sI43
g1
((lp131
I74
aI75
atp132
Rp133
sI44
g1
((lp134
I76
aI77
atp135
Rp136
sI45
g1
((lp137
I78
aI79
atp138
Rp139
sI46
g1
((lp140
I80
aI81
atp141
Rp142
sI47
g1
((lp143
I82
aI83
atp144
Rp145
sI48
g1
((lp146
I84
aI85
atp147
Rp148
sI49
g1
((lp149
I86
aI87
atp150
Rp151
sI50
g1
((lp152
I88
aI89
atp153
Rp154
sI51
g1
((lp155
I90
atp156
Rp157
sI52
g1
((lp158
I91
atp159
Rp160
sI53
g1
((lp161
I92
aI93
atp162
Rp163
sI54
g1
((lp164
I94
aI95
atp165
Rp166
sI55
g1
((lp167
I96
aI97
atp168
Rp169
sI56
g1
((lp170
I98
aI99
atp171
Rp172
sI57
g1
((lp173
I100
atp174
Rp175
sI58
g1
((lp176
I101
aI102
atp177
Rp178
sI59
g1
((lp179
I103
atp180
Rp181
sI60
g1
((lp182
I104
aI105
atp183
Rp184
sI61
g1
((lp185
I106
aI107
atp186
Rp187
sI62
g1
((lp188
I108
aI109
atp189
Rp190
sI63
g1
((lp191
I110
atp192
Rp193
sI64
g1
((lp194
I111
atp195
Rp196
sI65
g1
((lp197
I112
atp198
Rp199
sI66
g1
((lp200
I113
aI114
atp201
Rp202
sI67
g1
((lp203
I115
aI116
atp204
Rp205
sI68
g1
((lp206
I117
aI118
atp207
Rp208
sI69
g1
((lp209
I120
aI119
atp210
Rp211
sI70
g1
((lp212
I121
atp213
Rp214
sI71
g1
((lp215
I122
atp216
Rp217
sI72
g1
((lp218
I123
aI124
atp219
Rp220
sI73
g1
((lp221
I125
aI126
atp222
Rp223
sI74
g1
((lp224
I128
aI127
atp225
Rp226
sI75
g1
((lp227
I129
aI130
atp228
Rp229
sI76
g1
((lp230
I131
aI132
atp231
Rp232
sI77
g1
((lp233
I133
aI134
atp234
Rp235
sI78
g1
((lp236
I136
aI135
atp237
Rp238
sI79
g1
((lp239
I137
aI138
atp240
Rp241
sI80
g1
((lp242
I139
aI140
atp243
Rp244
sI81
g1
((lp245
I141
aI142
atp246
Rp247
sI82
g1
((lp248
I144
aI143
atp249
Rp250
sI83
g1
((lp251
I145
atp252
Rp253
sI84
g1
((lp254
I146
aI147
atp255
Rp256
sI85
g1
((lp257
I148
aI149
atp258
Rp259
sI86
g1
((lp260
I150
atp261
Rp262
sI87
g1
((lp263
I152
aI151
atp264
Rp265
sI88
g1
((lp266
I153
atp267
Rp268
sI89
g1
((lp269
I154
atp270
Rp271
sI90
g1
((lp272
I155
aI156
atp273
Rp274
sI91
g1
((lp275
I157
atp276
Rp277
sI92
g1
((lp278
I158
atp279
Rp280
sI93
g1
((lp281
I160
aI159
atp282
Rp283
sI94
g1
((lp284
I161
aI162
atp285
Rp286
sI95
g1
((lp287
I163
aI164
atp288
Rp289
sI96
g1
((lp290
I165
atp291
Rp292
sI97
g1
((lp293
I166
atp294
Rp295
sI98
g1
((lp296
I167
atp297
Rp298
sI99
g1
((lp299
I168
aI169
atp300
Rp301
sI100
g1
((lp302
I170
aI171
atp303
Rp304
sI101
g1
((lp305
I172
aI173
atp306
Rp307
sI102
g1
((lp308
I174
aI175
atp309
Rp310
sI103
g1
((lp311
I176
aI177
atp312
Rp313
sI104
g1
((lp314
I185
aI178
aI186
atp315
Rp316
sI105
g1
((lp317
I179
atp318
Rp319
sI106
g1
((lp320
I180
atp321
Rp322
sI107
g1
((lp323
I181
aI182
atp324
Rp325
sI108
g1
((lp326
I184
aI183
atp327
Rp328
sI109
g1
((lp329
I187
atp330
Rp331
sI110
g1
((lp332
I188
atp333
Rp334
sI111
g1
((lp335
I189
aI190
atp336
Rp337
sI112
g1
((lp338
I192
aI191
atp339
Rp340
sI113
g1
((lp341
I193
aI194
atp342
Rp343
sI114
g1
((lp344
I195
aI196
atp345
Rp346
sI115
g1
((lp347
I197
atp348
Rp349
sI116
g1
((lp350
I198
atp351
Rp352
sI117
g1
((lp353
I200
aI199
atp354
Rp355
sI118
g1
((lp356
I201
aI202
atp357
Rp358
sI119
g1
((lp359
I203
aI204
atp360
Rp361
sI120
g1
((lp362
I205
atp363
Rp364
sI121
g1
((lp365
I206
aI207
atp366
Rp367
sI122
g1
((lp368
I208
aI209
atp369
Rp370
sI123
g1
((lp371
I210
aI211
atp372
Rp373
sI124
g1
((lp374
I212
aI213
atp375
Rp376
sI125
g1
((lp377
I214
aI215
atp378
Rp379
sI126
g1
((lp380
I216
aI217
atp381
Rp382
sI127
g1
((lp383
I218
aI219
atp384
Rp385
sI128
g1
((lp386
I220
atp387
Rp388
sI129
g1
((lp389
I221
atp390
Rp391
sI130
g1
((lp392
I222
atp393
Rp394
sI131
g1
((lp395
I224
aI223
atp396
Rp397
sI132
g1
((lp398
I225
aI226
atp399
Rp400
sI133
g1
((lp401
I227
aI228
atp402
Rp403
sI134
g1
((lp404
I229
atp405
Rp406
sI135
g1
((lp407
I230
aI231
atp408
Rp409
sI136
g1
((lp410
I232
aI233
atp411
Rp412
sI137
g1
((lp413
I234
aI235
atp414
Rp415
sI138
g1
((lp416
I236
aI237
atp417
Rp418
sI139
g1
((lp419
I238
atp420
Rp421
sI140
g1
((lp422
I239
atp423
Rp424
sI141
g1
((lp425
I240
atp426
Rp427
sI142
g1
((lp428
I241
aI242
atp429
Rp430
sI143
g1
((lp431
I243
aI244
atp432
Rp433
sI144
g1
((lp434
I245
aI246
atp435
Rp436
sI145
g1
((lp437
I248
aI247
atp438
Rp439
sI146
g1
((lp440
I249
atp441
Rp442
sI147
g1
((lp443
I250
atp444
Rp445
sI148
g1
((lp446
I251
aI252
atp447
Rp448
sI149
g1
((lp449
I253
aI254
atp450
Rp451
sI150
g1
((lp452
I255
atp453
Rp454
s.